; ModuleID = '19/1229.c'
source_filename = "19/1229.c"
target datalayout = "e-m:e-p270:32:32-p271:32:32-p272:64:64-i64:64-f80:128-n8:16:32:64-S128"
target triple = "x86_64-pc-linux-gnu"

@.str = private unnamed_addr constant [3 x i8] c"%s\00", align 1
@.str.1 = private unnamed_addr constant [4 x i8] c"%s \00", align 1

; Function Attrs: noinline nounwind uwtable
define dso_local i32 @main() #0 {
  %1 = alloca i32, align 4
  %2 = alloca i8*, align 8
  %3 = alloca i8*, align 8
  %4 = alloca i8*, align 8
  %5 = alloca i8*, align 8
  %6 = alloca i8*, align 8
  store i32 0, i32* %1, align 4
  %7 = call noalias i8* @malloc(i64 100) #4
  store i8* %7, i8** %2, align 8
  %8 = call noalias i8* @malloc(i64 100) #4
  store i8* %8, i8** %3, align 8
  %9 = call noalias i8* @malloc(i64 100) #4
  store i8* %9, i8** %4, align 8
  %10 = load i8*, i8** %2, align 8
  %11 = call i32 (i8*, ...) bitcast (i32 (...)* @gets to i32 (i8*, ...)*)(i8* %10)
  %12 = load i8*, i8** %3, align 8
  %13 = call i32 (i8*, ...) bitcast (i32 (...)* @gets to i32 (i8*, ...)*)(i8* %12)
  %14 = load i8*, i8** %4, align 8
  %15 = call i32 (i8*, ...) bitcast (i32 (...)* @gets to i32 (i8*, ...)*)(i8* %14)
  %16 = load i8*, i8** %2, align 8
  store i8* %16, i8** %6, align 8
  %17 = load i8*, i8** %2, align 8
  store i8* %17, i8** %5, align 8
  br label %18

18:                                               ; preds = %55, %0
  %19 = load i8*, i8** %5, align 8
  %20 = load i8, i8* %19, align 1
  %21 = sext i8 %20 to i32
  %22 = icmp eq i32 %21, 0
  br i1 %22, label %23, label %34

23:                                               ; preds = %18
  %24 = load i8*, i8** %6, align 8
  %25 = load i8*, i8** %3, align 8
  %26 = call i32 @strcmp(i8* %24, i8* %25) #5
  %27 = icmp eq i32 %26, 0
  br i1 %27, label %28, label %31

28:                                               ; preds = %23
  %29 = load i8*, i8** %4, align 8
  %30 = call i32 (i8*, ...) @printf(i8* getelementptr inbounds ([3 x i8], [3 x i8]* @.str, i64 0, i64 0), i8* %29)
  br label %58

31:                                               ; preds = %23
  %32 = load i8*, i8** %6, align 8
  %33 = call i32 (i8*, ...) @printf(i8* getelementptr inbounds ([3 x i8], [3 x i8]* @.str, i64 0, i64 0), i8* %32)
  br label %58

34:                                               ; preds = %18
  %35 = load i8*, i8** %5, align 8
  %36 = load i8, i8* %35, align 1
  %37 = sext i8 %36 to i32
  %38 = icmp eq i32 %37, 32
  br i1 %38, label %39, label %54

39:                                               ; preds = %34
  %40 = load i8*, i8** %5, align 8
  store i8 0, i8* %40, align 1
  %41 = load i8*, i8** %6, align 8
  %42 = load i8*, i8** %3, align 8
  %43 = call i32 @strcmp(i8* %41, i8* %42) #5
  %44 = icmp eq i32 %43, 0
  br i1 %44, label %45, label %48

45:                                               ; preds = %39
  %46 = load i8*, i8** %4, align 8
  %47 = call i32 (i8*, ...) @printf(i8* getelementptr inbounds ([4 x i8], [4 x i8]* @.str.1, i64 0, i64 0), i8* %46)
  br label %51

48:                                               ; preds = %39
  %49 = load i8*, i8** %6, align 8
  %50 = call i32 (i8*, ...) @printf(i8* getelementptr inbounds ([4 x i8], [4 x i8]* @.str.1, i64 0, i64 0), i8* %49)
  br label %51

51:                                               ; preds = %48, %45
  %52 = load i8*, i8** %5, align 8
  %53 = getelementptr inbounds i8, i8* %52, i64 1
  store i8* %53, i8** %6, align 8
  br label %54

54:                                               ; preds = %51, %34
  br label %55

55:                                               ; preds = %54
  %56 = load i8*, i8** %5, align 8
  %57 = getelementptr inbounds i8, i8* %56, i32 1
  store i8* %57, i8** %5, align 8
  br label %18

58:                                               ; preds = %31, %28
  ret i32 0
}

; Function Attrs: nounwind
declare dso_local noalias i8* @malloc(i64) #1

declare dso_local i32 @gets(...) #2

; Function Attrs: nounwind readonly
declare dso_local i32 @strcmp(i8*, i8*) #3

declare dso_local i32 @printf(i8*, ...) #2


!llvm.module.flags = !{!0}
!llvm.ident = !{!1}

!0 = !{i32 1, !"wchar_size", i32 4}
!1 = !{!"clang version 10.0.0-4ubuntu1 "}
