; ModuleID = 'source-C-CXX/18/1229.c'
source_filename = "source-C-CXX/18/1229.c"
target datalayout = "e-m:e-p270:32:32-p271:32:32-p272:64:64-i64:64-f80:128-n8:16:32:64-S128"
target triple = "x86_64-pc-linux-gnu"

@.str = private unnamed_addr constant [3 x i8] c"%s\00", align 1
@.str.1 = private unnamed_addr constant [4 x i8] c"%s \00", align 1

; Function Attrs: nounwind sspstrong uwtable
define dso_local i32 @main() local_unnamed_addr #0 {
  %1 = tail call noalias align 16 dereferenceable_or_null(100) i8* @malloc(i64 100) #5
  %2 = tail call noalias align 16 dereferenceable_or_null(100) i8* @malloc(i64 100) #5
  %3 = tail call noalias align 16 dereferenceable_or_null(100) i8* @malloc(i64 100) #5
  %4 = tail call i32 (i8*, ...) bitcast (i32 (...)* @gets to i32 (i8*, ...)*)(i8* %1) #5
  %5 = tail call i32 (i8*, ...) bitcast (i32 (...)* @gets to i32 (i8*, ...)*)(i8* %2) #5
  %6 = tail call i32 (i8*, ...) bitcast (i32 (...)* @gets to i32 (i8*, ...)*)(i8* %3) #5
  br label %7

7:                                                ; preds = %22, %0
  %8 = phi i8* [ %1, %0 ], [ %24, %22 ]
  %9 = phi i8* [ %1, %0 ], [ %23, %22 ]
  %10 = load i8, i8* %8, align 1, !tbaa !5
  switch i8 %10, label %22 [
    i8 0, label %11
    i8 32, label %16
  ]

11:                                               ; preds = %7
  %12 = tail call i32 @strcmp(i8* noundef nonnull dereferenceable(1) %9, i8* noundef nonnull dereferenceable(1) %2) #6
  %13 = icmp eq i32 %12, 0
  %14 = select i1 %13, i8* %3, i8* %9
  %15 = tail call i32 (i8*, ...) @printf(i8* nonnull dereferenceable(1) getelementptr inbounds ([3 x i8], [3 x i8]* @.str, i64 0, i64 0), i8* %14)
  ret i32 0

16:                                               ; preds = %7
  store i8 0, i8* %8, align 1, !tbaa !5
  %17 = tail call i32 @strcmp(i8* noundef nonnull dereferenceable(1) %9, i8* noundef nonnull dereferenceable(1) %2) #6
  %18 = icmp eq i32 %17, 0
  %19 = select i1 %18, i8* %3, i8* %9
  %20 = tail call i32 (i8*, ...) @printf(i8* nonnull dereferenceable(1) getelementptr inbounds ([4 x i8], [4 x i8]* @.str.1, i64 0, i64 0), i8* %19)
  %21 = getelementptr inbounds i8, i8* %8, i64 1
  br label %22

22:                                               ; preds = %7, %16
  %23 = phi i8* [ %21, %16 ], [ %9, %7 ]
  %24 = getelementptr inbounds i8, i8* %8, i64 1
  br label %7
}

; Function Attrs: inaccessiblememonly mustprogress nofree nounwind willreturn
declare noalias noundef align 16 i8* @malloc(i64 noundef) local_unnamed_addr #1

declare i32 @gets(...) local_unnamed_addr #2

; Function Attrs: argmemonly mustprogress nofree nounwind readonly willreturn
declare i32 @strcmp(i8* nocapture, i8* nocapture) local_unnamed_addr #3

; Function Attrs: nofree nounwind
declare noundef i32 @printf(i8* nocapture noundef readonly, ...) local_unnamed_addr #4


!llvm.module.flags = !{!0, !1, !2, !3}
!llvm.ident = !{!4}

!0 = !{i32 1, !"wchar_size", i32 4}
!1 = !{i32 7, !"PIC Level", i32 2}
!2 = !{i32 7, !"PIE Level", i32 2}
!3 = !{i32 7, !"uwtable", i32 1}
!4 = !{!"clang version 13.0.0"}
!5 = !{!6, !6, i64 0}
!6 = !{!"omnipotent char", !7, i64 0}
!7 = !{!"Simple C/C++ TBAA"}
